target datalayout = "e-m:e-p270:32:32-p271:32:32-p272:64:64-i64:64-i128:128-f80:128-n8:16:32:64-S128"
target triple = "x86_64-unknown-linux-gnu"

%struct.hmac_ctx_st = type { ptr, %struct.env_md_ctx_st, %struct.env_md_ctx_st, %struct.env_md_ctx_st }
%struct.env_md_ctx_st = type { ptr, ptr, ptr, ptr }

; Function Attrs: nounwind uwtable
define hidden void @HMAC_CTX_init(ptr noundef %ctx) #0 {
entry:
  %ctx.addr = alloca ptr, align 8
  store ptr %ctx, ptr %ctx.addr, align 8
  %0 = load ptr, ptr %ctx.addr, align 8
  %md = getelementptr inbounds %struct.hmac_ctx_st, ptr %0, i32 0, i32 0
  store ptr null, ptr %md, align 8
  %1 = load ptr, ptr %ctx.addr, align 8
  %i_ctx = getelementptr inbounds %struct.hmac_ctx_st, ptr %1, i32 0, i32 2
  call void @EVP_MD_CTX_init(ptr noundef %i_ctx)
  %2 = load ptr, ptr %ctx.addr, align 8
  %o_ctx = getelementptr inbounds %struct.hmac_ctx_st, ptr %2, i32 0, i32 3
  call void @EVP_MD_CTX_init(ptr noundef %o_ctx)
  %3 = load ptr, ptr %ctx.addr, align 8
  %md_ctx = getelementptr inbounds %struct.hmac_ctx_st, ptr %3, i32 0, i32 1
  call void @EVP_MD_CTX_init(ptr noundef %md_ctx)
  ret void
}

; Function Attrs: nounwind uwtable
define hidden i32 @HMAC_Init(ptr noundef %ctx, ptr noundef %key, i32 noundef %key_len, ptr noundef %md) #0 {
entry:
  %ctx.addr = alloca ptr, align 8
  %key.addr = alloca ptr, align 8
  %key_len.addr = alloca i32, align 4
  %md.addr = alloca ptr, align 8
  store ptr %ctx, ptr %ctx.addr, align 8
  store ptr %key, ptr %key.addr, align 8
  store i32 %key_len, ptr %key_len.addr, align 4
  store ptr %md, ptr %md.addr, align 8
  %0 = load ptr, ptr %key.addr, align 8
  %tobool = icmp ne ptr %0, null
  br i1 %tobool, label %land.lhs.true, label %if.end

land.lhs.true:                                    ; preds = %entry
  %1 = load ptr, ptr %md.addr, align 8
  %tobool1 = icmp ne ptr %1, null
  br i1 %tobool1, label %if.then, label %if.end

if.then:                                          ; preds = %land.lhs.true
  %2 = load ptr, ptr %ctx.addr, align 8
  call void @HMAC_CTX_init(ptr noundef %2)
  br label %if.end

if.end:                                           ; preds = %if.then, %land.lhs.true, %entry
  %3 = load ptr, ptr %ctx.addr, align 8
  %4 = load ptr, ptr %key.addr, align 8
  %5 = load i32, ptr %key_len.addr, align 4
  %conv = sext i32 %5 to i64
  %6 = load ptr, ptr %md.addr, align 8
  %call = call i32 @HMAC_Init_ex(ptr noundef %3, ptr noundef %4, i64 noundef %conv, ptr noundef %6, ptr noundef null)
  ret i32 %call
}