; Function Attrs: nounwind uwtable
define hidden range(i32 0, 2) i32 @HMAC_Init(ptr noundef %ctx, ptr noundef %key, i32 noundef %key_len, ptr noundef %md) local_unnamed_addr #0 {
entry:
  %tobool = icmp ne ptr %key, null
  %tobool1 = icmp ne ptr %md, null
  %or.cond = and i1 %tobool, %tobool1
  br i1 %or.cond, label %if.then, label %if.end

if.then:                                          ; preds = %entry
  store ptr null, ptr %ctx, align 8
  %i_ctx.i = getelementptr inbounds nuw i8, ptr %ctx, i64 40
  tail call void @EVP_MD_CTX_init(ptr noundef nonnull %i_ctx.i) #5
  %o_ctx.i = getelementptr inbounds nuw i8, ptr %ctx, i64 72
  tail call void @EVP_MD_CTX_init(ptr noundef nonnull %o_ctx.i) #5
  %md_ctx.i = getelementptr inbounds nuw i8, ptr %ctx, i64 8
  tail call void @EVP_MD_CTX_init(ptr noundef nonnull %md_ctx.i) #5
  br label %if.end

if.end:                                           ; preds = %if.then, %entry
  %conv = sext i32 %key_len to i64
  %call = tail call i32 @HMAC_Init_ex(ptr noundef %ctx, ptr noundef %key, i64 noundef %conv, ptr noundef %md, ptr noundef null)
  ret i32 %call
}